; Function Attrs: mustprogress uwtable
define zeroext range(i8 0, 2) i8 @lean_expr_equal(ptr noundef %0, ptr noundef %1) local_unnamed_addr #0 personality ptr @__gxx_personality_v0 {
  %3 = alloca ptr, align 8
  %4 = alloca ptr, align 8
  %5 = alloca %"class.lean::expr_eq_fn.0", align 8
  store ptr %0, ptr %3, align 8, !tbaa !32
  store ptr %1, ptr %4, align 8, !tbaa !32
  call void @llvm.lifetime.start.p0(i64 24, ptr nonnull %5) #15
  call void @llvm.memset.p0.i64(ptr noundef nonnull align 8 dereferenceable(24) %5, i8 0, i64 24, i1 false)
  %6 = invoke noundef zeroext i1 @_ZN4lean10expr_eq_fnILb1EE5applyERKNS_4exprES4_jb(ptr noundef nonnull align 8 dereferenceable(24) %5, ptr noundef nonnull align 8 dereferenceable(8) %3, ptr noundef nonnull align 8 dereferenceable(8) %4, i32 noundef 0, i1 noundef zeroext true)
          to label %_ZN4lean10expr_eq_fnILb1EEclERKNS_4exprES4_.exit unwind label %8

_ZN4lean10expr_eq_fnILb1EEclERKNS_4exprES4_.exit: ; preds = %2
  %7 = zext i1 %6 to i8
  call void @_ZN4lean10expr_eq_fnILb1EED2Ev(ptr noundef nonnull align 8 dereferenceable(24) %5) #15
  call void @llvm.lifetime.end.p0(i64 24, ptr nonnull %5) #15
  ret i8 %7

8:                                                ; preds = %2
  %9 = landingpad { ptr, i32 }
          cleanup
  call void @_ZN4lean10expr_eq_fnILb1EED2Ev(ptr noundef nonnull align 8 dereferenceable(24) %5) #15
  call void @llvm.lifetime.end.p0(i64 24, ptr nonnull %5) #15
  resume { ptr, i32 } %9
}